; Function Attrs: nounwind sspstrong uwtable
define dso_local void @host_to_target_old_sigset(ptr noundef writeonly captures(none) %old_sigset, ptr noundef %sigset) local_unnamed_addr #1 {
entry:
  br label %host_to_target_signal.exit.i.i

host_to_target_signal.exit.i.i:                   ; preds = %for.inc.i.i, %entry
  %d1.sroa.0.0.i = phi i64 [ 0, %entry ], [ %d1.sroa.0.1.i, %for.inc.i.i ]
  %indvars.iv.i.i = phi i64 [ 1, %entry ], [ %indvars.iv.next.i.i, %for.inc.i.i ]
  %arrayidx.i.i.i = getelementptr [65 x i8], ptr @host_to_target_signal_table, i64 0, i64 %indvars.iv.i.i
  %0 = load i8, ptr %arrayidx.i.i.i, align 1
  %conv.i.i.i = zext i8 %0 to i32
  %1 = add nsw i32 %conv.i.i.i, -65
  %or.cond.i.i = icmp ult i32 %1, -64
  br i1 %or.cond.i.i, label %for.inc.i.i, label %if.end.i.i

if.end.i.i:                                       ; preds = %host_to_target_signal.exit.i.i
  %2 = trunc nuw nsw i64 %indvars.iv.i.i to i32
  %call3.i.i = tail call i32 @sigismember(ptr noundef %sigset, i32 noundef %2) #16
  %tobool.not.i.i = icmp eq i32 %call3.i.i, 0
  br i1 %tobool.not.i.i, label %for.inc.i.i, label %if.then4.i.i

if.then4.i.i:                                     ; preds = %if.end.i.i
  %dec.i.i.i = add nuw nsw i32 %conv.i.i.i, 63
  %rem.i.i.i = and i32 %dec.i.i.i, 63
  %sh_prom.i.i.i = zext nneg i32 %rem.i.i.i to i64
  %shl.i.i.i = shl nuw i64 1, %sh_prom.i.i.i
  %or.i.i.i = or i64 %shl.i.i.i, %d1.sroa.0.0.i
  br label %for.inc.i.i

for.inc.i.i:                                      ; preds = %if.then4.i.i, %if.end.i.i, %host_to_target_signal.exit.i.i
  %d1.sroa.0.1.i = phi i64 [ %d1.sroa.0.0.i, %host_to_target_signal.exit.i.i ], [ %d1.sroa.0.0.i, %if.end.i.i ], [ %or.i.i.i, %if.then4.i.i ]
  %indvars.iv.next.i.i = add nuw nsw i64 %indvars.iv.i.i, 1
  %exitcond.not.i.i = icmp eq i64 %indvars.iv.next.i.i, 65
  br i1 %exitcond.not.i.i, label %host_to_target_sigset.exit, label %host_to_target_signal.exit.i.i, !llvm.loop !5

host_to_target_sigset.exit:                       ; preds = %for.inc.i.i
  store i64 %d1.sroa.0.1.i, ptr %old_sigset, align 8
  ret void
}